; ModuleID = '51/244.c'
source_filename = "51/244.c"
target datalayout = "e-m:e-p270:32:32-p271:32:32-p272:64:64-i64:64-f80:128-n8:16:32:64-S128"
target triple = "x86_64-pc-linux-gnu"

@.str = private unnamed_addr constant [3 x i8] c"%d\00", align 1
@.str.1 = private unnamed_addr constant [3 x i8] c"%s\00", align 1
@.str.2 = private unnamed_addr constant [4 x i8] c"%d\0A\00", align 1
@.str.3 = private unnamed_addr constant [4 x i8] c"%s\0A\00", align 1
@.str.4 = private unnamed_addr constant [3 x i8] c"NO\00", align 1

; Function Attrs: noinline nounwind uwtable
define dso_local i32 @main() #0 {
  %1 = alloca i32, align 4
  %2 = alloca [500 x i8], align 16
  %3 = alloca i32, align 4
  %4 = alloca [500 x [10 x i8]], align 16
  %5 = alloca i32, align 4
  %6 = alloca i32, align 4
  %7 = alloca [500 x i32], align 16
  %8 = alloca i32, align 4
  %9 = alloca i32, align 4
  store i32 0, i32* %1, align 4
  %10 = call i32 (i8*, ...) @__isoc99_scanf(i8* getelementptr inbounds ([3 x i8], [3 x i8]* @.str, i64 0, i64 0), i32* %3)
  %11 = bitcast [500 x [10 x i8]]* %4 to i8*
  call void @llvm.memset.p0i8.i64(i8* align 16 %11, i8 0, i64 5000, i1 false)
  %12 = bitcast [500 x i32]* %7 to i8*
  call void @llvm.memset.p0i8.i64(i8* align 16 %12, i8 0, i64 2000, i1 false)
  %13 = getelementptr inbounds [500 x i8], [500 x i8]* %2, i64 0, i64 0
  %14 = call i32 (i8*, ...) @__isoc99_scanf(i8* getelementptr inbounds ([3 x i8], [3 x i8]* @.str.1, i64 0, i64 0), i8* %13)
  store i32 0, i32* %5, align 4
  br label %15

15:                                               ; preds = %50, %0
  %16 = load i32, i32* %5, align 4
  %17 = sext i32 %16 to i64
  %18 = getelementptr inbounds [500 x i8], [500 x i8]* %2, i64 0, i64 0
  %19 = call i64 @strlen(i8* %18) #4
  %20 = load i32, i32* %3, align 4
  %21 = sext i32 %20 to i64
  %22 = sub i64 %19, %21
  %23 = add i64 %22, 1
  %24 = icmp ult i64 %17, %23
  br i1 %24, label %25, label %53

25:                                               ; preds = %15
  store i32 0, i32* %9, align 4
  %26 = load i32, i32* %5, align 4
  store i32 %26, i32* %6, align 4
  br label %27

27:                                               ; preds = %46, %25
  %28 = load i32, i32* %6, align 4
  %29 = load i32, i32* %5, align 4
  %30 = load i32, i32* %3, align 4
  %31 = add nsw i32 %29, %30
  %32 = icmp slt i32 %28, %31
  br i1 %32, label %33, label %49

33:                                               ; preds = %27
  %34 = load i32, i32* %6, align 4
  %35 = sext i32 %34 to i64
  %36 = getelementptr inbounds [500 x i8], [500 x i8]* %2, i64 0, i64 %35
  %37 = load i8, i8* %36, align 1
  %38 = load i32, i32* %5, align 4
  %39 = sext i32 %38 to i64
  %40 = getelementptr inbounds [500 x [10 x i8]], [500 x [10 x i8]]* %4, i64 0, i64 %39
  %41 = load i32, i32* %9, align 4
  %42 = sext i32 %41 to i64
  %43 = getelementptr inbounds [10 x i8], [10 x i8]* %40, i64 0, i64 %42
  store i8 %37, i8* %43, align 1
  %44 = load i32, i32* %9, align 4
  %45 = add nsw i32 %44, 1
  store i32 %45, i32* %9, align 4
  br label %46

46:                                               ; preds = %33
  %47 = load i32, i32* %6, align 4
  %48 = add nsw i32 %47, 1
  store i32 %48, i32* %6, align 4
  br label %27

49:                                               ; preds = %27
  br label %50

50:                                               ; preds = %49
  %51 = load i32, i32* %5, align 4
  %52 = add nsw i32 %51, 1
  store i32 %52, i32* %5, align 4
  br label %15

53:                                               ; preds = %15
  store i32 0, i32* %5, align 4
  br label %54

54:                                               ; preds = %99, %53
  %55 = load i32, i32* %5, align 4
  %56 = sext i32 %55 to i64
  %57 = getelementptr inbounds [500 x i8], [500 x i8]* %2, i64 0, i64 0
  %58 = call i64 @strlen(i8* %57) #4
  %59 = load i32, i32* %3, align 4
  %60 = sext i32 %59 to i64
  %61 = sub i64 %58, %60
  %62 = add i64 %61, 1
  %63 = icmp ult i64 %56, %62
  br i1 %63, label %64, label %102

64:                                               ; preds = %54
  %65 = load i32, i32* %5, align 4
  %66 = add nsw i32 %65, 1
  store i32 %66, i32* %6, align 4
  br label %67

67:                                               ; preds = %95, %64
  %68 = load i32, i32* %6, align 4
  %69 = sext i32 %68 to i64
  %70 = getelementptr inbounds [500 x i8], [500 x i8]* %2, i64 0, i64 0
  %71 = call i64 @strlen(i8* %70) #4
  %72 = load i32, i32* %3, align 4
  %73 = sext i32 %72 to i64
  %74 = sub i64 %71, %73
  %75 = add i64 %74, 1
  %76 = icmp ult i64 %69, %75
  br i1 %76, label %77, label %98

77:                                               ; preds = %67
  %78 = load i32, i32* %5, align 4
  %79 = sext i32 %78 to i64
  %80 = getelementptr inbounds [500 x [10 x i8]], [500 x [10 x i8]]* %4, i64 0, i64 %79
  %81 = getelementptr inbounds [10 x i8], [10 x i8]* %80, i64 0, i64 0
  %82 = load i32, i32* %6, align 4
  %83 = sext i32 %82 to i64
  %84 = getelementptr inbounds [500 x [10 x i8]], [500 x [10 x i8]]* %4, i64 0, i64 %83
  %85 = getelementptr inbounds [10 x i8], [10 x i8]* %84, i64 0, i64 0
  %86 = call i32 @strcmp(i8* %81, i8* %85) #4
  %87 = icmp eq i32 %86, 0
  br i1 %87, label %88, label %94

88:                                               ; preds = %77
  %89 = load i32, i32* %5, align 4
  %90 = sext i32 %89 to i64
  %91 = getelementptr inbounds [500 x i32], [500 x i32]* %7, i64 0, i64 %90
  %92 = load i32, i32* %91, align 4
  %93 = add nsw i32 %92, 1
  store i32 %93, i32* %91, align 4
  br label %94

94:                                               ; preds = %88, %77
  br label %95

95:                                               ; preds = %94
  %96 = load i32, i32* %6, align 4
  %97 = add nsw i32 %96, 1
  store i32 %97, i32* %6, align 4
  br label %67

98:                                               ; preds = %67
  br label %99

99:                                               ; preds = %98
  %100 = load i32, i32* %5, align 4
  %101 = add nsw i32 %100, 1
  store i32 %101, i32* %5, align 4
  br label %54

102:                                              ; preds = %54
  %103 = getelementptr inbounds [500 x i32], [500 x i32]* %7, i64 0, i64 0
  %104 = load i32, i32* %103, align 16
  store i32 %104, i32* %8, align 4
  store i32 1, i32* %5, align 4
  br label %105

105:                                              ; preds = %128, %102
  %106 = load i32, i32* %5, align 4
  %107 = sext i32 %106 to i64
  %108 = getelementptr inbounds [500 x i8], [500 x i8]* %2, i64 0, i64 0
  %109 = call i64 @strlen(i8* %108) #4
  %110 = load i32, i32* %3, align 4
  %111 = sext i32 %110 to i64
  %112 = sub i64 %109, %111
  %113 = add i64 %112, 1
  %114 = icmp ult i64 %107, %113
  br i1 %114, label %115, label %131

115:                                              ; preds = %105
  %116 = load i32, i32* %5, align 4
  %117 = sext i32 %116 to i64
  %118 = getelementptr inbounds [500 x i32], [500 x i32]* %7, i64 0, i64 %117
  %119 = load i32, i32* %118, align 4
  %120 = load i32, i32* %8, align 4
  %121 = icmp sgt i32 %119, %120
  br i1 %121, label %122, label %127

122:                                              ; preds = %115
  %123 = load i32, i32* %5, align 4
  %124 = sext i32 %123 to i64
  %125 = getelementptr inbounds [500 x i32], [500 x i32]* %7, i64 0, i64 %124
  %126 = load i32, i32* %125, align 4
  store i32 %126, i32* %8, align 4
  br label %127

127:                                              ; preds = %122, %115
  br label %128

128:                                              ; preds = %127
  %129 = load i32, i32* %5, align 4
  %130 = add nsw i32 %129, 1
  store i32 %130, i32* %5, align 4
  br label %105

131:                                              ; preds = %105
  %132 = load i32, i32* %8, align 4
  %133 = icmp sgt i32 %132, 0
  br i1 %133, label %134, label %138

134:                                              ; preds = %131
  %135 = load i32, i32* %8, align 4
  %136 = add nsw i32 %135, 1
  %137 = call i32 (i8*, ...) @printf(i8* getelementptr inbounds ([4 x i8], [4 x i8]* @.str.2, i64 0, i64 0), i32 %136)
  br label %138

138:                                              ; preds = %134, %131
  store i32 0, i32* %5, align 4
  br label %139

139:                                              ; preds = %166, %138
  %140 = load i32, i32* %5, align 4
  %141 = sext i32 %140 to i64
  %142 = getelementptr inbounds [500 x i8], [500 x i8]* %2, i64 0, i64 0
  %143 = call i64 @strlen(i8* %142) #4
  %144 = load i32, i32* %3, align 4
  %145 = sext i32 %144 to i64
  %146 = sub i64 %143, %145
  %147 = add i64 %146, 1
  %148 = icmp ult i64 %141, %147
  br i1 %148, label %149, label %169

149:                                              ; preds = %139
  %150 = load i32, i32* %5, align 4
  %151 = sext i32 %150 to i64
  %152 = getelementptr inbounds [500 x i32], [500 x i32]* %7, i64 0, i64 %151
  %153 = load i32, i32* %152, align 4
  %154 = load i32, i32* %8, align 4
  %155 = icmp eq i32 %153, %154
  br i1 %155, label %156, label %165

156:                                              ; preds = %149
  %157 = load i32, i32* %8, align 4
  %158 = icmp sgt i32 %157, 0
  br i1 %158, label %159, label %165

159:                                              ; preds = %156
  %160 = load i32, i32* %5, align 4
  %161 = sext i32 %160 to i64
  %162 = getelementptr inbounds [500 x [10 x i8]], [500 x [10 x i8]]* %4, i64 0, i64 %161
  %163 = getelementptr inbounds [10 x i8], [10 x i8]* %162, i64 0, i64 0
  %164 = call i32 (i8*, ...) @printf(i8* getelementptr inbounds ([4 x i8], [4 x i8]* @.str.3, i64 0, i64 0), i8* %163)
  br label %165

165:                                              ; preds = %159, %156, %149
  br label %166

166:                                              ; preds = %165
  %167 = load i32, i32* %5, align 4
  %168 = add nsw i32 %167, 1
  store i32 %168, i32* %5, align 4
  br label %139

169:                                              ; preds = %139
  %170 = load i32, i32* %8, align 4
  %171 = icmp eq i32 %170, 0
  br i1 %171, label %172, label %174

172:                                              ; preds = %169
  %173 = call i32 (i8*, ...) @printf(i8* getelementptr inbounds ([3 x i8], [3 x i8]* @.str.4, i64 0, i64 0))
  br label %174

174:                                              ; preds = %172, %169
  ret i32 0
}

declare dso_local i32 @__isoc99_scanf(i8*, ...) #1

; Function Attrs: argmemonly nounwind willreturn
declare void @llvm.memset.p0i8.i64(i8* nocapture writeonly, i8, i64, i1 immarg) #2

; Function Attrs: nounwind readonly
declare dso_local i64 @strlen(i8*) #3

; Function Attrs: nounwind readonly
declare dso_local i32 @strcmp(i8*, i8*) #3

declare dso_local i32 @printf(i8*, ...) #1


!llvm.module.flags = !{!0}
!llvm.ident = !{!1}

!0 = !{i32 1, !"wchar_size", i32 4}
!1 = !{!"clang version 10.0.0-4ubuntu1 "}
